target datalayout = "e-m:e-p270:32:32-p271:32:32-p272:64:64-i64:64-i128:128-f80:128-n8:16:32:64-S128"
target triple = "x86_64-unknown-linux-gnu"

%class.ast_object_ref = type { %class.object_ref.base, ptr }
%class.object_ref.base = type <{ ptr, i32 }>

@.str = private unnamed_addr constant [42 x i8] c"global variable does not reference an AST\00", align 1
@_ZTI13cmd_exception = linkonce_odr hidden constant { ptr, ptr, ptr } { ptr getelementptr inbounds (ptr, ptr @_ZTVN10__cxxabiv120__si_class_type_infoE, i64 2), ptr @_ZTS13cmd_exception, ptr @_ZTI17default_exception }, comdat, align 8
@.str.2 = private unnamed_addr constant [4 x i8] c"AST\00", align 1

; Function Attrs: mustprogress nounwind uwtable
define linkonce_odr hidden noundef ptr @_ZNK14ast_object_ref7get_astEv(ptr noundef nonnull align 8 dereferenceable(24) %this) #5 comdat align 2 {
entry:
  %this.addr = alloca ptr, align 8
  store ptr %this, ptr %this.addr, align 8
  %this1 = load ptr, ptr %this.addr, align 8
  %m_ast = getelementptr inbounds %class.ast_object_ref, ptr %this1, i32 0, i32 1
  %0 = load ptr, ptr %m_ast, align 8
  ret ptr %0
}

; Function Attrs: mustprogress nounwind uwtable
define linkonce_odr hidden noundef ptr @_ZN14ast_object_ref8cls_kindEv() #5 comdat align 2 {
entry:
  ret ptr @.str.2
}

; Function Attrs: mustprogress uwtable
define hidden noundef ptr @_Z11get_ast_refR11cmd_contextRK6symbol(ptr noundef nonnull align 8 dereferenceable(872) %ctx, ptr noundef nonnull align 8 dereferenceable(8) %v) #4 personality ptr @__gxx_personality_v0 {
entry:
  %ctx.addr = alloca ptr, align 8
  %v.addr = alloca ptr, align 8
  %r = alloca ptr, align 8
  %exn.slot = alloca ptr, align 8
  %ehselector.slot = alloca i32, align 4
  store ptr %ctx, ptr %ctx.addr, align 8
  store ptr %v, ptr %v.addr, align 8
  %0 = load ptr, ptr %ctx.addr, align 8
  %1 = load ptr, ptr %v.addr, align 8
  %call = call noundef ptr @_ZNK11cmd_context15find_object_refERK6symbol(ptr noundef nonnull align 8 dereferenceable(872) %0, ptr noundef nonnull align 8 dereferenceable(8) %1)
  store ptr %call, ptr %r, align 8
  %2 = load ptr, ptr %r, align 8
  %vtable = load ptr, ptr %2, align 8
  %vfn = getelementptr inbounds ptr, ptr %vtable, i64 3
  %3 = load ptr, ptr %vfn, align 8
  %call1 = call noundef ptr %3(ptr noundef nonnull align 8 dereferenceable(12) %2)
  %call2 = call noundef ptr @_ZN14ast_object_ref8cls_kindEv()
  %cmp = icmp ne ptr %call1, %call2
  br i1 %cmp, label %if.then, label %if.end

if.then:                                          ; preds = %entry
  %exception = call ptr @__cxa_allocate_exception(i64 48) #3
  invoke void @_ZN13cmd_exceptionC2EPKc(ptr noundef nonnull align 8 dereferenceable(48) %exception, ptr noundef @.str)
          to label %invoke.cont unwind label %lpad

invoke.cont:                                      ; preds = %if.then
  call void @__cxa_throw(ptr %exception, ptr @_ZTI13cmd_exception, ptr @_ZN13cmd_exceptionD2Ev) #9
  unreachable

lpad:                                             ; preds = %if.then
  %4 = landingpad { ptr, i32 }
          cleanup
  %5 = extractvalue { ptr, i32 } %4, 0
  store ptr %5, ptr %exn.slot, align 8
  %6 = extractvalue { ptr, i32 } %4, 1
  store i32 %6, ptr %ehselector.slot, align 4
  call void @__cxa_free_exception(ptr %exception) #3
  br label %eh.resume

if.end:                                           ; preds = %entry
  %7 = load ptr, ptr %r, align 8
  %call3 = call noundef ptr @_ZNK14ast_object_ref7get_astEv(ptr noundef nonnull align 8 dereferenceable(24) %7)
  ret ptr %call3

eh.resume:                                        ; preds = %lpad
  %exn = load ptr, ptr %exn.slot, align 8
  %sel = load i32, ptr %ehselector.slot, align 4
  %lpad.val = insertvalue { ptr, i32 } poison, ptr %exn, 0
  %lpad.val4 = insertvalue { ptr, i32 } %lpad.val, i32 %sel, 1
  resume { ptr, i32 } %lpad.val4
}