; Function Attrs: mustprogress uwtable
define hidden noundef ptr @_Z11get_ast_refR11cmd_contextRK6symbol(ptr noundef nonnull align 8 dereferenceable(872) %ctx, ptr noundef nonnull align 8 dereferenceable(8) %v) local_unnamed_addr #3 personality ptr @__gxx_personality_v0 {
entry:
  %call = tail call noundef ptr @_ZNK11cmd_context15find_object_refERK6symbol(ptr noundef nonnull align 8 dereferenceable(872) %ctx, ptr noundef nonnull align 8 dereferenceable(8) %v)
  %vtable = load ptr, ptr %call, align 8
  %vfn = getelementptr inbounds i8, ptr %vtable, i64 24
  %0 = load ptr, ptr %vfn, align 8
  %call1 = tail call noundef ptr %0(ptr noundef nonnull align 8 dereferenceable(12) %call)
  %cmp.not = icmp eq ptr %call1, @.str.2
  br i1 %cmp.not, label %if.end, label %if.then

if.then:                                          ; preds = %entry
  %exception = tail call ptr @__cxa_allocate_exception(i64 48) #10
  invoke void @_ZN13cmd_exceptionC2EPKc(ptr noundef nonnull align 8 dereferenceable(48) %exception, ptr noundef nonnull @.str)
          to label %invoke.cont unwind label %lpad

invoke.cont:                                      ; preds = %if.then
  tail call void @__cxa_throw(ptr nonnull %exception, ptr nonnull @_ZTI13cmd_exception, ptr nonnull @_ZN13cmd_exceptionD2Ev) #11
  unreachable

lpad:                                             ; preds = %if.then
  %1 = landingpad { ptr, i32 }
          cleanup
  tail call void @__cxa_free_exception(ptr %exception) #10
  resume { ptr, i32 } %1

if.end:                                           ; preds = %entry
  %m_ast.i = getelementptr inbounds i8, ptr %call, i64 16
  %2 = load ptr, ptr %m_ast.i, align 8
  ret ptr %2
}